target datalayout = "e-m:e-p270:32:32-p271:32:32-p272:64:64-i64:64-i128:128-f80:128-n8:16:32:64-S128"
target triple = "x86_64-pc-linux-gnu"

%"class.i18n::phonenumbers::UnicodeText::const_iterator" = type { ptr }

; Function Attrs: inlinehint mustprogress nounwind uwtable
define linkonce_odr dso_local noundef zeroext i1 @_ZN4i18n12phonenumbers6UniLib11IsTrailByteEc(i8 noundef signext %0) #2 comdat {
  %2 = alloca i8, align 1
  store i8 %0, ptr %2, align 1, !tbaa !15
  %3 = load i8, ptr %2, align 1, !tbaa !15
  %4 = sext i8 %3 to i32
  %5 = icmp slt i32 %4, -64
  ret i1 %5
}

; Function Attrs: mustprogress uwtable
define dso_local noundef nonnull align 8 dereferenceable(8) ptr @_ZN4i18n12phonenumbers11UnicodeText14const_iteratormmEv(ptr noundef nonnull align 8 dereferenceable(8) %0) #0 align 2 {
  %2 = alloca ptr, align 8
  store ptr %0, ptr %2, align 8, !tbaa !4
  %3 = load ptr, ptr %2, align 8
  br label %4

4:                                                ; preds = %10, %1
  %5 = getelementptr inbounds nuw %"class.i18n::phonenumbers::UnicodeText::const_iterator", ptr %3, i32 0, i32 0
  %6 = load ptr, ptr %5, align 8, !tbaa !9
  %7 = getelementptr inbounds i8, ptr %6, i32 -1
  store ptr %7, ptr %5, align 8, !tbaa !9
  %8 = load i8, ptr %7, align 1, !tbaa !15
  %9 = call noundef zeroext i1 @_ZN4i18n12phonenumbers6UniLib11IsTrailByteEc(i8 noundef signext %8)
  br i1 %9, label %10, label %11

10:                                               ; preds = %4
  br label %4, !llvm.loop !68

11:                                               ; preds = %4
  ret ptr %3
}