; Function Attrs: mustprogress nofree norecurse nosync nounwind memory(read, argmem: readwrite, inaccessiblemem: none) uwtable
define dso_local noundef nonnull align 8 dereferenceable(8) ptr @_ZN4i18n12phonenumbers11UnicodeText14const_iteratormmEv(ptr noundef nonnull returned align 8 dereferenceable(8) %0) local_unnamed_addr #15 align 2 {
  %.promoted = load ptr, ptr %0, align 8, !tbaa !4
  br label %2

2:                                                ; preds = %2, %1
  %3 = phi ptr [ %4, %2 ], [ %.promoted, %1 ]
  %4 = getelementptr inbounds i8, ptr %3, i64 -1
  store ptr %4, ptr %0, align 8, !tbaa !4
  %5 = load i8, ptr %4, align 1, !tbaa !10
  %6 = icmp slt i8 %5, -64
  br i1 %6, label %2, label %7, !llvm.loop !82

7:                                                ; preds = %2
  ret ptr %0
}